target datalayout = "e-m:e-p270:32:32-p271:32:32-p272:64:64-i64:64-i128:128-f80:128-n8:16:32:64-S128"
target triple = "x86_64-pc-linux-gnu"

%struct.Gia_Man_t_ = type { ptr, ptr, i32, i32, i32, i32, ptr, ptr, i32, i32, i32, ptr, ptr, %struct.Vec_Int_t_, %struct.Vec_Int_t_, i32, i32, i32, %struct.Vec_Int_t_, ptr, ptr, ptr, i32, i32, i32, i32, ptr, ptr, ptr, ptr, ptr, i32, i32, ptr, i32, ptr, ptr, ptr, ptr, ptr, ptr, ptr, ptr, ptr, ptr, ptr, ptr, ptr, ptr, ptr, ptr, ptr, ptr, %struct.Vec_Int_t_, %struct.Vec_Int_t_, ptr, ptr, ptr, ptr, ptr, ptr, ptr, ptr, ptr, ptr, ptr, ptr, ptr, ptr, ptr, ptr, ptr, ptr, ptr, ptr, ptr, i32, float, float, ptr, ptr, i32, ptr, ptr, ptr, ptr, ptr, ptr, ptr, ptr, ptr, ptr, ptr, ptr, ptr, ptr, ptr, i64, i64, ptr, ptr, i32, i32, i32, i32, i32, i32, i32, i32, i32, i32, i32, i32, ptr, ptr, ptr, ptr, ptr, ptr, ptr, ptr, i32, i32, i32, ptr, i32, i32, ptr, ptr, ptr, ptr, ptr, ptr, i32, i32, ptr, %struct.Vec_Int_t_, %struct.Vec_Int_t_, %struct.Vec_Int_t_, ptr, ptr, ptr, i32, i32, i32, i32, ptr, ptr, ptr, ptr, ptr }
%struct.Vec_Int_t_ = type { i32, i32, ptr }
%struct.Gia_Obj_t_ = type <{ i64, i32 }>
%struct.Vec_Wec_t_ = type { i32, i32, ptr }
%struct.Sle_Man_t_ = type { ptr, i32, i32, i32, i32, i32, i32, i32, i32, i32, i32, i32, i32, ptr, ptr, ptr, ptr, ptr, ptr, ptr, ptr, ptr, ptr, ptr, ptr, i64 }

; Function Attrs: inlinehint nounwind uwtable
define internal ptr @Vec_IntEntryP(ptr noundef %0, i32 noundef %1) #2 {
  %3 = alloca ptr, align 8
  %4 = alloca i32, align 4
  store ptr %0, ptr %3, align 8, !tbaa !10
  store i32 %1, ptr %4, align 4, !tbaa !8
  %5 = load ptr, ptr %3, align 8, !tbaa !10
  %6 = getelementptr inbounds nuw %struct.Vec_Int_t_, ptr %5, i32 0, i32 2
  %7 = load ptr, ptr %6, align 8, !tbaa !37
  %8 = load i32, ptr %4, align 4, !tbaa !8
  %9 = sext i32 %8 to i64
  %10 = getelementptr inbounds i32, ptr %7, i64 %9
  ret ptr %10
}

; Function Attrs: inlinehint nounwind uwtable
define internal i32 @Vec_IntEntry(ptr noundef %0, i32 noundef %1) #2 {
  %3 = alloca ptr, align 8
  %4 = alloca i32, align 4
  store ptr %0, ptr %3, align 8, !tbaa !10
  store i32 %1, ptr %4, align 4, !tbaa !8
  %5 = load ptr, ptr %3, align 8, !tbaa !10
  %6 = getelementptr inbounds nuw %struct.Vec_Int_t_, ptr %5, i32 0, i32 2
  %7 = load ptr, ptr %6, align 8, !tbaa !37
  %8 = load i32, ptr %4, align 4, !tbaa !8
  %9 = sext i32 %8 to i64
  %10 = getelementptr inbounds i32, ptr %7, i64 %9
  %11 = load i32, ptr %10, align 4, !tbaa !8
  ret i32 %11
}

; Function Attrs: inlinehint nounwind uwtable
define internal i32 @Vec_IntSize(ptr noundef %0) #2 {
  %2 = alloca ptr, align 8
  store ptr %0, ptr %2, align 8, !tbaa !10
  %3 = load ptr, ptr %2, align 8, !tbaa !10
  %4 = getelementptr inbounds nuw %struct.Vec_Int_t_, ptr %3, i32 0, i32 1
  %5 = load i32, ptr %4, align 4, !tbaa !39
  ret i32 %5
}

; Function Attrs: inlinehint nounwind uwtable
define internal ptr @Vec_WecEntry(ptr noundef %0, i32 noundef %1) #2 {
  %3 = alloca ptr, align 8
  %4 = alloca i32, align 4
  store ptr %0, ptr %3, align 8, !tbaa !67
  store i32 %1, ptr %4, align 4, !tbaa !8
  %5 = load ptr, ptr %3, align 8, !tbaa !67
  %6 = getelementptr inbounds nuw %struct.Vec_Wec_t_, ptr %5, i32 0, i32 2
  %7 = load ptr, ptr %6, align 8, !tbaa !71
  %8 = load i32, ptr %4, align 4, !tbaa !8
  %9 = sext i32 %8 to i64
  %10 = getelementptr inbounds %struct.Vec_Int_t_, ptr %7, i64 %9
  ret ptr %10
}

; Function Attrs: inlinehint nounwind uwtable
define internal i32 @Sle_ListCutNum(ptr noundef %0) #2 {
  %2 = alloca ptr, align 8
  store ptr %0, ptr %2, align 8, !tbaa !14
  %3 = load ptr, ptr %2, align 8, !tbaa !14
  %4 = getelementptr inbounds i32, ptr %3, i64 0
  %5 = load i32, ptr %4, align 4, !tbaa !8
  ret i32 %5
}

; Function Attrs: inlinehint nounwind uwtable
define internal ptr @Sle_ManList(ptr noundef %0, i32 noundef %1) #2 {
  %3 = alloca ptr, align 8
  %4 = alloca i32, align 4
  store ptr %0, ptr %3, align 8, !tbaa !72
  store i32 %1, ptr %4, align 4, !tbaa !8
  %5 = load ptr, ptr %3, align 8, !tbaa !72
  %6 = getelementptr inbounds nuw %struct.Sle_Man_t_, ptr %5, i32 0, i32 15
  %7 = load ptr, ptr %6, align 8, !tbaa !80
  %8 = load ptr, ptr %3, align 8, !tbaa !72
  %9 = getelementptr inbounds nuw %struct.Sle_Man_t_, ptr %8, i32 0, i32 15
  %10 = load ptr, ptr %9, align 8, !tbaa !80
  %11 = load i32, ptr %4, align 4, !tbaa !8
  %12 = call i32 @Vec_IntEntry(ptr noundef %10, i32 noundef %11)
  %13 = call ptr @Vec_IntEntryP(ptr noundef %7, i32 noundef %12)
  ret ptr %13
}

; Function Attrs: inlinehint nounwind uwtable
define internal void @Vec_IntWriteEntry(ptr noundef %0, i32 noundef %1, i32 noundef %2) #2 {
  %4 = alloca ptr, align 8
  %5 = alloca i32, align 4
  %6 = alloca i32, align 4
  store ptr %0, ptr %4, align 8, !tbaa !10
  store i32 %1, ptr %5, align 4, !tbaa !8
  store i32 %2, ptr %6, align 4, !tbaa !8
  %7 = load i32, ptr %6, align 4, !tbaa !8
  %8 = load ptr, ptr %4, align 8, !tbaa !10
  %9 = getelementptr inbounds nuw %struct.Vec_Int_t_, ptr %8, i32 0, i32 2
  %10 = load ptr, ptr %9, align 8, !tbaa !37
  %11 = load i32, ptr %5, align 4, !tbaa !8
  %12 = sext i32 %11 to i64
  %13 = getelementptr inbounds i32, ptr %10, i64 %12
  store i32 %7, ptr %13, align 4, !tbaa !8
  ret void
}

; Function Attrs: inlinehint nounwind uwtable
define internal i32 @Gia_ObjIsAnd(ptr noundef %0) #2 {
  %2 = alloca ptr, align 8
  store ptr %0, ptr %2, align 8, !tbaa !12
  %3 = load ptr, ptr %2, align 8, !tbaa !12
  %4 = load i64, ptr %3, align 4
  %5 = lshr i64 %4, 31
  %6 = and i64 %5, 1
  %7 = trunc i64 %6 to i32
  %8 = icmp ne i32 %7, 0
  br i1 %8, label %15, label %9

9:                                                ; preds = %1
  %10 = load ptr, ptr %2, align 8, !tbaa !12
  %11 = load i64, ptr %10, align 4
  %12 = and i64 %11, 536870911
  %13 = trunc i64 %12 to i32
  %14 = icmp ne i32 %13, 536870911
  br label %15

15:                                               ; preds = %9, %1
  %16 = phi i1 [ false, %1 ], [ %14, %9 ]
  %17 = zext i1 %16 to i32
  ret i32 %17
}

; Function Attrs: inlinehint nounwind uwtable
define internal ptr @Gia_ManObj(ptr noundef %0, i32 noundef %1) #2 {
  %3 = alloca ptr, align 8
  %4 = alloca i32, align 4
  store ptr %0, ptr %3, align 8, !tbaa !3
  store i32 %1, ptr %4, align 4, !tbaa !8
  %5 = load ptr, ptr %3, align 8, !tbaa !3
  %6 = getelementptr inbounds nuw %struct.Gia_Man_t_, ptr %5, i32 0, i32 6
  %7 = load ptr, ptr %6, align 8, !tbaa !20
  %8 = load i32, ptr %4, align 4, !tbaa !8
  %9 = sext i32 %8 to i64
  %10 = getelementptr inbounds %struct.Gia_Obj_t_, ptr %7, i64 %9
  ret ptr %10
}

; Function Attrs: inlinehint nounwind uwtable
define internal i32 @Gia_ManObjNum(ptr noundef %0) #2 {
  %2 = alloca ptr, align 8
  store ptr %0, ptr %2, align 8, !tbaa !3
  %3 = load ptr, ptr %2, align 8, !tbaa !3
  %4 = getelementptr inbounds nuw %struct.Gia_Man_t_, ptr %3, i32 0, i32 4
  %5 = load i32, ptr %4, align 8, !tbaa !49
  ret i32 %5
}

; Function Attrs: nounwind uwtable
define void @Sle_ManMarkupVariables(ptr noundef %0) #0 {
  %2 = alloca ptr, align 8
  %3 = alloca i32, align 4
  %4 = alloca i32, align 4
  store ptr %0, ptr %2, align 8, !tbaa !72
  call void @llvm.lifetime.start.p0(i64 4, ptr %3) #12
  call void @llvm.lifetime.start.p0(i64 4, ptr %4) #12
  %5 = load ptr, ptr %2, align 8, !tbaa !72
  %6 = getelementptr inbounds nuw %struct.Sle_Man_t_, ptr %5, i32 0, i32 0
  %7 = load ptr, ptr %6, align 8, !tbaa !74
  %8 = call i32 @Gia_ManObjNum(ptr noundef %7)
  store i32 %8, ptr %4, align 4, !tbaa !8
  %9 = load i32, ptr %4, align 4, !tbaa !8
  %10 = load ptr, ptr %2, align 8, !tbaa !72
  %11 = getelementptr inbounds nuw %struct.Sle_Man_t_, ptr %10, i32 0, i32 4
  store i32 %9, ptr %11, align 4, !tbaa !92
  store i32 0, ptr %3, align 4, !tbaa !8
  br label %12

12:                                               ; preds = %42, %1
  %13 = load i32, ptr %3, align 4, !tbaa !8
  %14 = load ptr, ptr %2, align 8, !tbaa !72
  %15 = getelementptr inbounds nuw %struct.Sle_Man_t_, ptr %14, i32 0, i32 0
  %16 = load ptr, ptr %15, align 8, !tbaa !74
  %17 = getelementptr inbounds nuw %struct.Gia_Man_t_, ptr %16, i32 0, i32 4
  %18 = load i32, ptr %17, align 8, !tbaa !49
  %19 = icmp slt i32 %13, %18
  br i1 %19, label %20, label %45

20:                                               ; preds = %12
  %21 = load ptr, ptr %2, align 8, !tbaa !72
  %22 = getelementptr inbounds nuw %struct.Sle_Man_t_, ptr %21, i32 0, i32 0
  %23 = load ptr, ptr %22, align 8, !tbaa !74
  %24 = load i32, ptr %3, align 4, !tbaa !8
  %25 = call ptr @Gia_ManObj(ptr noundef %23, i32 noundef %24)
  %26 = call i32 @Gia_ObjIsAnd(ptr noundef %25)
  %27 = icmp ne i32 %26, 0
  br i1 %27, label %29, label %28

28:                                               ; preds = %20
  br label %41

29:                                               ; preds = %20
  %30 = load ptr, ptr %2, align 8, !tbaa !72
  %31 = getelementptr inbounds nuw %struct.Sle_Man_t_, ptr %30, i32 0, i32 20
  %32 = load ptr, ptr %31, align 8, !tbaa !85
  %33 = load i32, ptr %3, align 4, !tbaa !8
  %34 = load i32, ptr %4, align 4, !tbaa !8
  call void @Vec_IntWriteEntry(ptr noundef %32, i32 noundef %33, i32 noundef %34)
  %35 = load ptr, ptr %2, align 8, !tbaa !72
  %36 = load i32, ptr %3, align 4, !tbaa !8
  %37 = call ptr @Sle_ManList(ptr noundef %35, i32 noundef %36)
  %38 = call i32 @Sle_ListCutNum(ptr noundef %37)
  %39 = load i32, ptr %4, align 4, !tbaa !8
  %40 = add nsw i32 %39, %38
  store i32 %40, ptr %4, align 4, !tbaa !8
  br label %41

41:                                               ; preds = %29, %28
  br label %42

42:                                               ; preds = %41
  %43 = load i32, ptr %3, align 4, !tbaa !8
  %44 = add nsw i32 %43, 1
  store i32 %44, ptr %3, align 4, !tbaa !8
  br label %12, !llvm.loop !93

45:                                               ; preds = %12
  %46 = load i32, ptr %4, align 4, !tbaa !8
  %47 = load ptr, ptr %2, align 8, !tbaa !72
  %48 = getelementptr inbounds nuw %struct.Sle_Man_t_, ptr %47, i32 0, i32 4
  %49 = load i32, ptr %48, align 4, !tbaa !92
  %50 = sub nsw i32 %46, %49
  %51 = load ptr, ptr %2, align 8, !tbaa !72
  %52 = getelementptr inbounds nuw %struct.Sle_Man_t_, ptr %51, i32 0, i32 5
  store i32 %50, ptr %52, align 8, !tbaa !94
  store i32 0, ptr %3, align 4, !tbaa !8
  br label %53

53:                                               ; preds = %85, %45
  %54 = load i32, ptr %3, align 4, !tbaa !8
  %55 = load ptr, ptr %2, align 8, !tbaa !72
  %56 = getelementptr inbounds nuw %struct.Sle_Man_t_, ptr %55, i32 0, i32 0
  %57 = load ptr, ptr %56, align 8, !tbaa !74
  %58 = getelementptr inbounds nuw %struct.Gia_Man_t_, ptr %57, i32 0, i32 4
  %59 = load i32, ptr %58, align 8, !tbaa !49
  %60 = icmp slt i32 %54, %59
  br i1 %60, label %61, label %88

61:                                               ; preds = %53
  %62 = load ptr, ptr %2, align 8, !tbaa !72
  %63 = getelementptr inbounds nuw %struct.Sle_Man_t_, ptr %62, i32 0, i32 0
  %64 = load ptr, ptr %63, align 8, !tbaa !74
  %65 = load i32, ptr %3, align 4, !tbaa !8
  %66 = call ptr @Gia_ManObj(ptr noundef %64, i32 noundef %65)
  %67 = call i32 @Gia_ObjIsAnd(ptr noundef %66)
  %68 = icmp ne i32 %67, 0
  br i1 %68, label %70, label %69

69:                                               ; preds = %61
  br label %84

70:                                               ; preds = %61
  %71 = load ptr, ptr %2, align 8, !tbaa !72
  %72 = getelementptr inbounds nuw %struct.Sle_Man_t_, ptr %71, i32 0, i32 21
  %73 = load ptr, ptr %72, align 8, !tbaa !86
  %74 = load i32, ptr %3, align 4, !tbaa !8
  %75 = load i32, ptr %4, align 4, !tbaa !8
  call void @Vec_IntWriteEntry(ptr noundef %73, i32 noundef %74, i32 noundef %75)
  %76 = load ptr, ptr %2, align 8, !tbaa !72
  %77 = getelementptr inbounds nuw %struct.Sle_Man_t_, ptr %76, i32 0, i32 16
  %78 = load ptr, ptr %77, align 8, !tbaa !81
  %79 = load i32, ptr %3, align 4, !tbaa !8
  %80 = call ptr @Vec_WecEntry(ptr noundef %78, i32 noundef %79)
  %81 = call i32 @Vec_IntSize(ptr noundef %80)
  %82 = load i32, ptr %4, align 4, !tbaa !8
  %83 = add nsw i32 %82, %81
  store i32 %83, ptr %4, align 4, !tbaa !8
  br label %84

84:                                               ; preds = %70, %69
  br label %85

85:                                               ; preds = %84
  %86 = load i32, ptr %3, align 4, !tbaa !8
  %87 = add nsw i32 %86, 1
  store i32 %87, ptr %3, align 4, !tbaa !8
  br label %53, !llvm.loop !95

88:                                               ; preds = %53
  %89 = load i32, ptr %4, align 4, !tbaa !8
  %90 = load ptr, ptr %2, align 8, !tbaa !72
  %91 = getelementptr inbounds nuw %struct.Sle_Man_t_, ptr %90, i32 0, i32 5
  %92 = load i32, ptr %91, align 8, !tbaa !94
  %93 = sub nsw i32 %89, %92
  %94 = load ptr, ptr %2, align 8, !tbaa !72
  %95 = getelementptr inbounds nuw %struct.Sle_Man_t_, ptr %94, i32 0, i32 4
  %96 = load i32, ptr %95, align 4, !tbaa !92
  %97 = sub nsw i32 %93, %96
  %98 = load ptr, ptr %2, align 8, !tbaa !72
  %99 = getelementptr inbounds nuw %struct.Sle_Man_t_, ptr %98, i32 0, i32 6
  store i32 %97, ptr %99, align 4, !tbaa !96
  store i32 0, ptr %3, align 4, !tbaa !8
  br label %100

100:                                              ; preds = %129, %88
  %101 = load i32, ptr %3, align 4, !tbaa !8
  %102 = load ptr, ptr %2, align 8, !tbaa !72
  %103 = getelementptr inbounds nuw %struct.Sle_Man_t_, ptr %102, i32 0, i32 0
  %104 = load ptr, ptr %103, align 8, !tbaa !74
  %105 = getelementptr inbounds nuw %struct.Gia_Man_t_, ptr %104, i32 0, i32 4
  %106 = load i32, ptr %105, align 8, !tbaa !49
  %107 = icmp slt i32 %101, %106
  br i1 %107, label %108, label %132

108:                                              ; preds = %100
  %109 = load ptr, ptr %2, align 8, !tbaa !72
  %110 = getelementptr inbounds nuw %struct.Sle_Man_t_, ptr %109, i32 0, i32 0
  %111 = load ptr, ptr %110, align 8, !tbaa !74
  %112 = load i32, ptr %3, align 4, !tbaa !8
  %113 = call ptr @Gia_ManObj(ptr noundef %111, i32 noundef %112)
  %114 = call i32 @Gia_ObjIsAnd(ptr noundef %113)
  %115 = icmp ne i32 %114, 0
  br i1 %115, label %117, label %116

116:                                              ; preds = %108
  br label %128

117:                                              ; preds = %108
  %118 = load ptr, ptr %2, align 8, !tbaa !72
  %119 = getelementptr inbounds nuw %struct.Sle_Man_t_, ptr %118, i32 0, i32 22
  %120 = load ptr, ptr %119, align 8, !tbaa !87
  %121 = load i32, ptr %3, align 4, !tbaa !8
  %122 = load i32, ptr %4, align 4, !tbaa !8
  call void @Vec_IntWriteEntry(ptr noundef %120, i32 noundef %121, i32 noundef %122)
  %123 = load ptr, ptr %2, align 8, !tbaa !72
  %124 = getelementptr inbounds nuw %struct.Sle_Man_t_, ptr %123, i32 0, i32 1
  %125 = load i32, ptr %124, align 8, !tbaa !77
  %126 = load i32, ptr %4, align 4, !tbaa !8
  %127 = add nsw i32 %126, %125
  store i32 %127, ptr %4, align 4, !tbaa !8
  br label %128

128:                                              ; preds = %117, %116
  br label %129

129:                                              ; preds = %128
  %130 = load i32, ptr %3, align 4, !tbaa !8
  %131 = add nsw i32 %130, 1
  store i32 %131, ptr %3, align 4, !tbaa !8
  br label %100, !llvm.loop !97

132:                                              ; preds = %100
  %133 = load i32, ptr %4, align 4, !tbaa !8
  %134 = load ptr, ptr %2, align 8, !tbaa !72
  %135 = getelementptr inbounds nuw %struct.Sle_Man_t_, ptr %134, i32 0, i32 6
  %136 = load i32, ptr %135, align 4, !tbaa !96
  %137 = sub nsw i32 %133, %136
  %138 = load ptr, ptr %2, align 8, !tbaa !72
  %139 = getelementptr inbounds nuw %struct.Sle_Man_t_, ptr %138, i32 0, i32 5
  %140 = load i32, ptr %139, align 8, !tbaa !94
  %141 = sub nsw i32 %137, %140
  %142 = load ptr, ptr %2, align 8, !tbaa !72
  %143 = getelementptr inbounds nuw %struct.Sle_Man_t_, ptr %142, i32 0, i32 4
  %144 = load i32, ptr %143, align 4, !tbaa !92
  %145 = sub nsw i32 %141, %144
  %146 = load ptr, ptr %2, align 8, !tbaa !72
  %147 = getelementptr inbounds nuw %struct.Sle_Man_t_, ptr %146, i32 0, i32 7
  store i32 %145, ptr %147, align 8, !tbaa !98
  %148 = load i32, ptr %4, align 4, !tbaa !8
  %149 = load ptr, ptr %2, align 8, !tbaa !72
  %150 = getelementptr inbounds nuw %struct.Sle_Man_t_, ptr %149, i32 0, i32 8
  store i32 %148, ptr %150, align 4, !tbaa !99
  call void @llvm.lifetime.end.p0(i64 4, ptr %4) #12
  call void @llvm.lifetime.end.p0(i64 4, ptr %3) #12
  ret void
}