; Function Attrs: nofree norecurse nosync nounwind memory(readwrite, inaccessiblemem: none) uwtable
define void @Sle_ManMarkupVariables(ptr noundef captures(none) initializes((20, 24)) %0) local_unnamed_addr #4 {
  %2 = load ptr, ptr %0, align 8, !tbaa !69
  %3 = getelementptr i8, ptr %2, i64 24
  %.val59 = load i32, ptr %3, align 8, !tbaa !44
  %4 = getelementptr inbounds nuw i8, ptr %0, i64 20
  store i32 %.val59, ptr %4, align 4, !tbaa !87
  %5 = icmp sgt i32 %.val59, 0
  br i1 %5, label %.lr.ph, label %._crit_edge.thread

._crit_edge.thread:                               ; preds = %1
  %6 = getelementptr inbounds nuw i8, ptr %0, i64 24
  store i32 0, ptr %6, align 8, !tbaa !88
  br label %._crit_edge84.thread

.lr.ph:                                           ; preds = %1
  %7 = getelementptr i8, ptr %2, i64 32
  %.val54 = load ptr, ptr %7, align 8, !tbaa !3
  %8 = getelementptr inbounds nuw i8, ptr %0, i64 112
  %9 = getelementptr i8, ptr %0, i64 72
  br label %10

10:                                               ; preds = %.lr.ph, %26
  %11 = phi i32 [ %.val59, %.lr.ph ], [ %27, %26 ]
  %indvars.iv = phi i64 [ 0, %.lr.ph ], [ %indvars.iv.next, %26 ]
  %.079 = phi i32 [ %.val59, %.lr.ph ], [ %.1, %26 ]
  %12 = getelementptr inbounds nuw %struct.Gia_Obj_t_, ptr %.val54, i64 %indvars.iv
  %.val62 = load i64, ptr %12, align 4
  %13 = and i64 %.val62, 2147483648
  %.not.i = icmp ne i64 %13, 0
  %14 = and i64 %.val62, 536870911
  %15 = icmp eq i64 %14, 536870911
  %narrow.i.not = or i1 %.not.i, %15
  br i1 %narrow.i.not, label %26, label %16

16:                                               ; preds = %10
  %17 = load ptr, ptr %8, align 8, !tbaa !80
  %18 = getelementptr i8, ptr %17, i64 8
  %.val58 = load ptr, ptr %18, align 8, !tbaa !28
  %19 = getelementptr inbounds nuw i32, ptr %.val58, i64 %indvars.iv
  store i32 %.079, ptr %19, align 4, !tbaa !29
  %.val64 = load ptr, ptr %9, align 8, !tbaa !75
  %20 = getelementptr i8, ptr %.val64, i64 8
  %.val64.val = load ptr, ptr %20, align 8, !tbaa !28
  %21 = getelementptr inbounds nuw i32, ptr %.val64.val, i64 %indvars.iv
  %22 = load i32, ptr %21, align 4, !tbaa !29
  %23 = sext i32 %22 to i64
  %24 = getelementptr inbounds i32, ptr %.val64.val, i64 %23
  %.val65 = load i32, ptr %24, align 4, !tbaa !29
  %25 = add nsw i32 %.val65, %.079
  %.pre = load i32, ptr %3, align 8, !tbaa !44
  br label %26

26:                                               ; preds = %16, %10
  %27 = phi i32 [ %.pre, %16 ], [ %11, %10 ]
  %.1 = phi i32 [ %25, %16 ], [ %.079, %10 ]
  %indvars.iv.next = add nuw nsw i64 %indvars.iv, 1
  %28 = sext i32 %27 to i64
  %29 = icmp slt i64 %indvars.iv.next, %28
  br i1 %29, label %10, label %._crit_edge, !llvm.loop !89

._crit_edge:                                      ; preds = %26
  %.pre99 = load i32, ptr %4, align 4, !tbaa !87
  %30 = sub nsw i32 %.1, %.pre99
  %31 = getelementptr inbounds nuw i8, ptr %0, i64 24
  store i32 %30, ptr %31, align 8, !tbaa !88
  %32 = icmp sgt i32 %27, 0
  br i1 %32, label %.lr.ph83, label %._crit_edge84.thread

.lr.ph83:                                         ; preds = %._crit_edge
  %33 = getelementptr i8, ptr %2, i64 32
  %.val53 = load ptr, ptr %33, align 8, !tbaa !3
  %34 = getelementptr inbounds nuw i8, ptr %0, i64 120
  %35 = getelementptr inbounds nuw i8, ptr %0, i64 80
  br label %36

36:                                               ; preds = %.lr.ph83, %50
  %37 = phi i32 [ %27, %.lr.ph83 ], [ %51, %50 ]
  %indvars.iv93 = phi i64 [ 0, %.lr.ph83 ], [ %indvars.iv.next94, %50 ]
  %.281 = phi i32 [ %.1, %.lr.ph83 ], [ %.3, %50 ]
  %38 = getelementptr inbounds nuw %struct.Gia_Obj_t_, ptr %.val53, i64 %indvars.iv93
  %.val61 = load i64, ptr %38, align 4
  %39 = and i64 %.val61, 2147483648
  %.not.i66 = icmp ne i64 %39, 0
  %40 = and i64 %.val61, 536870911
  %41 = icmp eq i64 %40, 536870911
  %narrow.i67.not = or i1 %.not.i66, %41
  br i1 %narrow.i67.not, label %50, label %42

42:                                               ; preds = %36
  %43 = load ptr, ptr %34, align 8, !tbaa !81
  %44 = getelementptr i8, ptr %43, i64 8
  %.val57 = load ptr, ptr %44, align 8, !tbaa !28
  %45 = getelementptr inbounds nuw i32, ptr %.val57, i64 %indvars.iv93
  store i32 %.281, ptr %45, align 4, !tbaa !29
  %46 = load ptr, ptr %35, align 8, !tbaa !76
  %47 = getelementptr i8, ptr %46, i64 8
  %.val63 = load ptr, ptr %47, align 8, !tbaa !66
  %48 = getelementptr %struct.Vec_Int_t_, ptr %.val63, i64 %indvars.iv93, i32 1
  %.val55 = load i32, ptr %48, align 4, !tbaa !31
  %49 = add nsw i32 %.val55, %.281
  %.pre100 = load i32, ptr %3, align 8, !tbaa !44
  br label %50

50:                                               ; preds = %42, %36
  %51 = phi i32 [ %.pre100, %42 ], [ %37, %36 ]
  %.3 = phi i32 [ %49, %42 ], [ %.281, %36 ]
  %indvars.iv.next94 = add nuw nsw i64 %indvars.iv93, 1
  %52 = sext i32 %51 to i64
  %53 = icmp slt i64 %indvars.iv.next94, %52
  br i1 %53, label %36, label %._crit_edge84, !llvm.loop !90

._crit_edge84.thread:                             ; preds = %._crit_edge, %._crit_edge.thread
  %.ph109 = phi i32 [ %.val59, %._crit_edge.thread ], [ %.pre99, %._crit_edge ]
  %.ph110 = phi i32 [ 0, %._crit_edge.thread ], [ %30, %._crit_edge ]
  %.2.lcssa.ph = phi i32 [ %.val59, %._crit_edge.thread ], [ %.1, %._crit_edge ]
  %54 = add i32 %.ph110, %.ph109
  %55 = sub i32 %.2.lcssa.ph, %54
  %56 = getelementptr inbounds nuw i8, ptr %0, i64 28
  store i32 %55, ptr %56, align 4, !tbaa !91
  br label %._crit_edge90

._crit_edge84:                                    ; preds = %50
  %.pre101 = load i32, ptr %31, align 8, !tbaa !88
  %.pre102 = load i32, ptr %4, align 4, !tbaa !87
  %57 = add i32 %.pre101, %.pre102
  %58 = sub i32 %.3, %57
  %59 = getelementptr inbounds nuw i8, ptr %0, i64 28
  store i32 %58, ptr %59, align 4, !tbaa !91
  %60 = icmp sgt i32 %51, 0
  br i1 %60, label %.lr.ph89, label %._crit_edge90

.lr.ph89:                                         ; preds = %._crit_edge84
  %61 = getelementptr i8, ptr %2, i64 32
  %.val = load ptr, ptr %61, align 8, !tbaa !3
  %62 = getelementptr inbounds nuw i8, ptr %0, i64 128
  %63 = getelementptr inbounds nuw i8, ptr %0, i64 8
  br label %64

64:                                               ; preds = %.lr.ph89, %76
  %65 = phi i32 [ %51, %.lr.ph89 ], [ %77, %76 ]
  %indvars.iv96 = phi i64 [ 0, %.lr.ph89 ], [ %indvars.iv.next97, %76 ]
  %.487 = phi i32 [ %.3, %.lr.ph89 ], [ %.5, %76 ]
  %66 = getelementptr inbounds nuw %struct.Gia_Obj_t_, ptr %.val, i64 %indvars.iv96
  %.val60 = load i64, ptr %66, align 4
  %67 = and i64 %.val60, 2147483648
  %.not.i68 = icmp ne i64 %67, 0
  %68 = and i64 %.val60, 536870911
  %69 = icmp eq i64 %68, 536870911
  %narrow.i69.not = or i1 %.not.i68, %69
  br i1 %narrow.i69.not, label %76, label %70

70:                                               ; preds = %64
  %71 = load ptr, ptr %62, align 8, !tbaa !82
  %72 = getelementptr i8, ptr %71, i64 8
  %.val56 = load ptr, ptr %72, align 8, !tbaa !28
  %73 = getelementptr inbounds nuw i32, ptr %.val56, i64 %indvars.iv96
  store i32 %.487, ptr %73, align 4, !tbaa !29
  %74 = load i32, ptr %63, align 8, !tbaa !72
  %75 = add nsw i32 %74, %.487
  %.pre103 = load i32, ptr %3, align 8, !tbaa !44
  br label %76

76:                                               ; preds = %70, %64
  %77 = phi i32 [ %.pre103, %70 ], [ %65, %64 ]
  %.5 = phi i32 [ %75, %70 ], [ %.487, %64 ]
  %indvars.iv.next97 = add nuw nsw i64 %indvars.iv96, 1
  %78 = sext i32 %77 to i64
  %79 = icmp slt i64 %indvars.iv.next97, %78
  br i1 %79, label %64, label %._crit_edge90.loopexit, !llvm.loop !92

._crit_edge90.loopexit:                           ; preds = %76
  %.pre104 = load i32, ptr %59, align 4, !tbaa !91
  %.pre105 = load i32, ptr %31, align 8, !tbaa !88
  %.pre106 = load i32, ptr %4, align 4, !tbaa !87
  br label %._crit_edge90

._crit_edge90:                                    ; preds = %._crit_edge84.thread, %._crit_edge90.loopexit, %._crit_edge84
  %80 = phi i32 [ %.pre102, %._crit_edge84 ], [ %.pre106, %._crit_edge90.loopexit ], [ %.ph109, %._crit_edge84.thread ]
  %81 = phi i32 [ %.pre101, %._crit_edge84 ], [ %.pre105, %._crit_edge90.loopexit ], [ %.ph110, %._crit_edge84.thread ]
  %82 = phi i32 [ %58, %._crit_edge84 ], [ %.pre104, %._crit_edge90.loopexit ], [ %55, %._crit_edge84.thread ]
  %.4.lcssa = phi i32 [ %.3, %._crit_edge84 ], [ %.5, %._crit_edge90.loopexit ], [ %.2.lcssa.ph, %._crit_edge84.thread ]
  %83 = add i32 %82, %81
  %84 = add i32 %83, %80
  %85 = sub i32 %.4.lcssa, %84
  %86 = getelementptr inbounds nuw i8, ptr %0, i64 32
  store i32 %85, ptr %86, align 8, !tbaa !93
  %87 = getelementptr inbounds nuw i8, ptr %0, i64 36
  store i32 %.4.lcssa, ptr %87, align 4, !tbaa !94
  ret void
}